Certificate:
    Data:
        Version: 3 (0x2)
        Serial Number:
            79:59:ad:5f:cd:44:8d:e0:18:57:54:3f:b3:af:f0:da
        Signature Algorithm: sha256WithRSAEncryption
        Issuer: CN=ChangeMe
        Validity
            Not Before: Jan 19 09:23:32 2026 GMT
            Not After : Apr 23 09:23:32 2028 GMT
        Subject: CN=ChangeMe
        Subject Public Key Info:
            Public Key Algorithm: rsaEncryption
                Public-Key: (2048 bit)
                Modulus:
                    00:a1:0c:99:ed:89:35:7f:81:c8:f8:ad:bf:9f:cc:
                    87:2a:a9:0c:0b:25:f5:d9:19:6b:3f:71:8d:7e:52:
                    1b:59:5f:dc:24:bd:0c:f5:b8:84:b2:f7:c2:09:15:
                    1a:02:11:69:80:ce:f8:5d:12:6b:32:fb:e4:7c:58:
                    73:f3:66:ce:eb:39:d2:94:33:9a:60:3f:35:6b:6d:
                    76:1f:a0:2d:75:49:46:e6:04:6f:8c:f7:4b:6e:de:
                    41:65:90:f1:ed:0e:6e:92:b0:00:70:5a:e6:ad:e8:
                    eb:07:07:ac:f2:98:33:8d:f8:3e:d1:60:17:cc:ac:
                    3d:1a:ed:8d:3b:3e:93:57:bc:b7:75:6d:46:e8:f3:
                    cc:57:8f:dd:a6:be:27:ef:53:0f:7d:83:22:e9:40:
                    64:b3:69:05:2f:c8:86:48:bb:fc:b2:e4:cf:d3:43:
                    b1:4f:a7:59:2b:6e:f0:23:88:0a:73:55:ec:08:62:
                    7e:ef:c3:f8:d2:74:2c:35:45:b1:76:99:69:99:6a:
                    5b:67:ff:c6:b7:77:ac:4c:7e:89:e0:e0:20:97:f2:
                    ce:d2:dc:c2:ba:b9:20:a8:90:7d:ed:c3:ae:e6:89:
                    17:fd:18:4c:d7:e7:28:e7:2f:d8:92:4e:f7:cc:0d:
                    fd:0a:85:82:b3:5a:21:9c:49:db:9f:e3:45:a9:9a:
                    26:6b
                Exponent: 65537 (0x10001)
        X509v3 extensions:
            X509v3 Basic Constraints: 
                CA:FALSE
            X509v3 Subject Key Identifier: 
                5E:10:63:20:B3:F6:68:1F:F8:81:F4:84:14:28:F5:11:2F:24:60:19
            X509v3 Authority Key Identifier: 
                keyid:F3:0D:9A:06:64:55:F8:64:34:91:07:0B:9B:B3:EB:02:64:FA:07:D4
                DirName:/CN=ChangeMe
                serial:70:AD:01:98:7C:27:15:36:95:F1:13:E1:69:EC:27:A7:96:81:8F:1E
            X509v3 Extended Key Usage: 
                TLS Web Client Authentication
            X509v3 Key Usage: 
                Digital Signature
    Signature Algorithm: sha256WithRSAEncryption
    Signature Value:
        c3:19:3f:f5:43:48:bc:df:5d:6d:37:d0:60:e8:d2:79:a7:05:
        9a:a1:10:01:5d:75:dc:06:80:fd:55:35:08:37:4f:af:f5:68:
        bc:4b:fd:73:11:50:65:0a:e3:06:d8:b5:9c:64:6a:f8:40:38:
        d9:77:f4:0f:6b:c7:6a:9c:d5:58:69:7b:5d:43:12:93:98:d4:
        76:3c:1f:42:5a:5f:8a:a0:e8:a4:48:43:50:c3:c3:7c:81:7c:
        a9:eb:92:d9:79:9d:92:57:93:01:8e:8b:39:b1:10:b6:55:01:
        7b:5d:68:f5:9c:69:c2:ae:5b:01:3a:2d:d8:6a:42:ca:a6:3b:
        cf:4d:ce:09:4a:15:57:9e:79:fc:f1:22:9a:21:c9:f7:85:0f:
        50:4b:6b:7c:86:d1:cb:a5:69:4f:b9:32:e1:b4:f3:4a:60:67:
        3f:f0:93:ea:af:63:1c:c2:76:9b:9f:61:c4:3f:8d:05:5c:80:
        43:88:f9:59:b6:1f:e5:df:46:47:12:18:f2:d6:bf:50:38:b3:
        02:65:96:e7:c5:b1:db:c2:e6:60:77:81:d3:09:18:da:3c:66:
        2c:b8:ae:3d:ce:ec:2e:7f:bd:01:dd:27:1d:dd:82:cf:fc:3d:
        e4:02:0f:59:b4:8e:16:52:93:6a:68:a5:20:f7:47:68:56:1a:
        80:b6:d6:59
-----BEGIN CERTIFICATE-----
MIIDUDCCAjigAwIBAgIQeVmtX81EjeAYV1Q/s6/w2jANBgkqhkiG9w0BAQsFADAT
MREwDwYDVQQDDAhDaGFuZ2VNZTAeFw0yNjAxMTkwOTIzMzJaFw0yODA0MjMwOTIz
MzJaMBMxETAPBgNVBAMMCENoYW5nZU1lMIIBIjANBgkqhkiG9w0BAQEFAAOCAQ8A
MIIBCgKCAQEAoQyZ7Yk1f4HI+K2/n8yHKqkMCyX12RlrP3GNflIbWV/cJL0M9biE
svfCCRUaAhFpgM74XRJrMvvkfFhz82bO6znSlDOaYD81a212H6AtdUlG5gRvjPdL
bt5BZZDx7Q5ukrAAcFrmrejrBwes8pgzjfg+0WAXzKw9Gu2NOz6TV7y3dW1G6PPM
V4/dpr4n71MPfYMi6UBks2kFL8iGSLv8suTP00OxT6dZK27wI4gKc1XsCGJ+78P4
0nQsNUWxdplpmWpbZ//Gt3esTH6J4OAgl/LO0tzCurkgqJB97cOu5okX/RhM1+co
5y/Ykk73zA39CoWCs1ohnEnbn+NFqZomawIDAQABo4GfMIGcMAkGA1UdEwQCMAAw
HQYDVR0OBBYEFF4QYyCz9mgf+IH0hBQo9REvJGAZME4GA1UdIwRHMEWAFPMNmgZk
VfhkNJEHC5uz6wJk+gfUoRekFTATMREwDwYDVQQDDAhDaGFuZ2VNZYIUcK0BmHwn
FTaV8RPhaewnp5aBjx4wEwYDVR0lBAwwCgYIKwYBBQUHAwIwCwYDVR0PBAQDAgeA
MA0GCSqGSIb3DQEBCwUAA4IBAQDDGT/1Q0i8311tN9Bg6NJ5pwWaoRABXXXcBoD9
VTUIN0+v9Wi8S/1zEVBlCuMG2LWcZGr4QDjZd/QPa8dqnNVYaXtdQxKTmNR2PB9C
Wl+KoOikSENQw8N8gXyp65LZeZ2SV5MBjos5sRC2VQF7XWj1nGnCrlsBOi3YakLK
pjvPTc4JShVXnnn88SKaIcn3hQ9QS2t8htHLpWlPuTLhtPNKYGc/8JPqr2Mcwnab
n2HEP40FXIBDiPlZth/l30ZHEhjy1r9QOLMCZZbnxbHbwuZgd4HTCRjaPGYsuK49
zuwuf70B3Scd3YLP/D3kAg9ZtI4WUpNqaKUg90doVhqAttZZ
-----END CERTIFICATE-----
